; Function Attrs: mustprogress nofree norecurse nosync nounwind memory(argmem: readwrite) uwtable
define noundef i64 @_ZN5faiss34fvec_L2sqr_ny_nearest_y_transposedEPfPKfS2_S2_mmm(ptr noundef captures(none) %0, ptr noundef readonly captures(none) %1, ptr noundef readonly captures(none) %2, ptr noundef readonly captures(none) %3, i64 noundef %4, i64 noundef %5, i64 noundef %6) local_unnamed_addr #2 {
  %.not.i.i = icmp eq i64 %4, 0
  br i1 %.not.i.i, label %.preheader31.thread.i.i, label %.lr.ph.i.i

.preheader31.i.i:                                 ; preds = %.lr.ph.i.i
  %.not40.i.i = icmp eq i64 %6, 0
  br i1 %.not40.i.i, label %_ZN5faiss38fvec_L2sqr_ny_nearest_y_transposed_refEPfPKfS2_S2_mmm.exit, label %.preheader.us.i.i

.preheader31.thread.i.i:                          ; preds = %7
  %.not4048.i.i = icmp eq i64 %6, 0
  br i1 %.not4048.i.i, label %_ZN5faiss38fvec_L2sqr_ny_nearest_y_transposed_refEPfPKfS2_S2_mmm.exit, label %.preheader.i.i

.preheader.us.i.i:                                ; preds = %.preheader31.i.i, %._crit_edge.us.i.i
  %.02738.us.i.i = phi i64 [ %22, %._crit_edge.us.i.i ], [ 0, %.preheader31.i.i ]
  %8 = getelementptr float, ptr %2, i64 %.02738.us.i.i
  br label %9

9:                                                ; preds = %9, %.preheader.us.i.i
  %.035.us.i.i = phi i64 [ 0, %.preheader.us.i.i ], [ %16, %9 ]
  %.02634.us.i.i = phi float [ 0.000000e+00, %.preheader.us.i.i ], [ %15, %9 ]
  %10 = getelementptr inbounds nuw float, ptr %1, i64 %.035.us.i.i
  %11 = load float, ptr %10, align 4, !tbaa !4
  %12 = mul i64 %.035.us.i.i, %5
  %13 = getelementptr float, ptr %8, i64 %12
  %14 = load float, ptr %13, align 4, !tbaa !4
  %15 = tail call float @llvm.fmuladd.f32(float %11, float %14, float %.02634.us.i.i)
  %16 = add nuw i64 %.035.us.i.i, 1
  %exitcond44.not.i.i = icmp eq i64 %16, %4
  br i1 %exitcond44.not.i.i, label %._crit_edge.us.i.i, label %9, !llvm.loop !18

._crit_edge.us.i.i:                               ; preds = %9
  %17 = getelementptr inbounds nuw float, ptr %3, i64 %.02738.us.i.i
  %18 = load float, ptr %17, align 4, !tbaa !4
  %19 = fadd float %25, %18
  %20 = tail call float @llvm.fmuladd.f32(float %15, float -2.000000e+00, float %19)
  %21 = getelementptr inbounds nuw float, ptr %0, i64 %.02738.us.i.i
  store float %20, ptr %21, align 4, !tbaa !4
  %22 = add nuw i64 %.02738.us.i.i, 1
  %exitcond45.not.i.i = icmp eq i64 %22, %6
  br i1 %exitcond45.not.i.i, label %.lr.ph.i.preheader, label %.preheader.us.i.i, !llvm.loop !19

.lr.ph.i.i:                                       ; preds = %7, %.lr.ph.i.i
  %.02833.i.i = phi i64 [ %26, %.lr.ph.i.i ], [ 0, %7 ]
  %.02932.i.i = phi float [ %25, %.lr.ph.i.i ], [ 0.000000e+00, %7 ]
  %23 = getelementptr inbounds nuw float, ptr %1, i64 %.02833.i.i
  %24 = load float, ptr %23, align 4, !tbaa !4
  %25 = tail call float @llvm.fmuladd.f32(float %24, float %24, float %.02932.i.i)
  %26 = add nuw i64 %.02833.i.i, 1
  %exitcond.not.i.i = icmp eq i64 %26, %4
  br i1 %exitcond.not.i.i, label %.preheader31.i.i, label %.lr.ph.i.i, !llvm.loop !20

.preheader.i.i:                                   ; preds = %.preheader31.thread.i.i, %.preheader.i.i
  %.02738.i.i = phi i64 [ %31, %.preheader.i.i ], [ 0, %.preheader31.thread.i.i ]
  %27 = getelementptr inbounds nuw float, ptr %3, i64 %.02738.i.i
  %28 = load float, ptr %27, align 4, !tbaa !4
  %29 = fadd float %28, 0.000000e+00
  %30 = getelementptr inbounds nuw float, ptr %0, i64 %.02738.i.i
  store float %29, ptr %30, align 4, !tbaa !4
  %31 = add nuw i64 %.02738.i.i, 1
  %exitcond46.not.i.i = icmp eq i64 %31, %6
  br i1 %exitcond46.not.i.i, label %.lr.ph.i.preheader, label %.preheader.i.i, !llvm.loop !19

.lr.ph.i.preheader:                               ; preds = %._crit_edge.us.i.i, %.preheader.i.i
  br label %.lr.ph.i

.lr.ph.i:                                         ; preds = %.lr.ph.i.preheader, %.lr.ph.i
  %.024.i = phi i64 [ %35, %.lr.ph.i ], [ 0, %.lr.ph.i.preheader ]
  %.01623.i = phi float [ %.1.i, %.lr.ph.i ], [ 0x7FF0000000000000, %.lr.ph.i.preheader ]
  %.01722.i = phi i64 [ %.118.i, %.lr.ph.i ], [ 0, %.lr.ph.i.preheader ]
  %32 = getelementptr inbounds nuw float, ptr %0, i64 %.024.i
  %33 = load float, ptr %32, align 4, !tbaa !4
  %34 = fcmp olt float %33, %.01623.i
  %.118.i = select i1 %34, i64 %.024.i, i64 %.01722.i
  %.1.i = select i1 %34, float %33, float %.01623.i
  %35 = add nuw i64 %.024.i, 1
  %exitcond.not.i = icmp eq i64 %35, %6
  br i1 %exitcond.not.i, label %_ZN5faiss38fvec_L2sqr_ny_nearest_y_transposed_refEPfPKfS2_S2_mmm.exit, label %.lr.ph.i, !llvm.loop !26

_ZN5faiss38fvec_L2sqr_ny_nearest_y_transposed_refEPfPKfS2_S2_mmm.exit: ; preds = %.lr.ph.i, %.preheader31.i.i, %.preheader31.thread.i.i
  %.017.lcssa.i = phi i64 [ 0, %.preheader31.i.i ], [ 0, %.preheader31.thread.i.i ], [ %.118.i, %.lr.ph.i ]
  ret i64 %.017.lcssa.i
}